target datalayout = "e-m:e-p270:32:32-p271:32:32-p272:64:64-i64:64-i128:128-f80:128-n8:16:32:64-S128"
target triple = "x86_64-pc-linux-gnu"

%class.QFlags = type { i32 }
%class.SaveSnapshotDialog = type { %class.QDialog, ptr, %class.SnapshotSetting }
%class.QDialog = type { %class.QWidget }
%class.QWidget = type { %class.QObject, %class.QPaintDevice, ptr }
%class.QObject = type { ptr, %class.QScopedPointer }
%class.QScopedPointer = type { ptr }
%class.QPaintDevice = type { ptr, i16, ptr }
%class.SnapshotSetting = type { %class.QString, %class.QString, i32, i32, i32, i8, i8, i8, i8 }
%class.QString = type { ptr }

@_ZTV18SaveSnapshotDialog = external unnamed_addr constant { [59 x ptr], [10 x ptr] }, align 8

; Function Attrs: mustprogress nounwind uwtable
define linkonce_odr void @_ZN6QFlagsIN2Qt10WindowTypeEEC2Ev(ptr noundef nonnull align 4 dereferenceable(4) %0) unnamed_addr #1 comdat align 2 {
  %2 = alloca ptr, align 8
  store ptr %0, ptr %2, align 8
  %3 = load ptr, ptr %2, align 8
  %4 = getelementptr inbounds %class.QFlags, ptr %3, i32 0, i32 0
  store i32 0, ptr %4, align 4
  ret void
}

; Function Attrs: mustprogress uwtable
define void @_ZN18SaveSnapshotDialogC2EP7QWidget(ptr noundef nonnull align 8 dereferenceable(88) %0, ptr noundef %1) unnamed_addr #0 align 2 personality ptr @__gxx_personality_v0 {
  %3 = alloca ptr, align 8
  %4 = alloca ptr, align 8
  %5 = alloca %class.QFlags, align 4
  %6 = alloca ptr, align 8
  %7 = alloca i32, align 4
  store ptr %0, ptr %3, align 8
  store ptr %1, ptr %4, align 8
  %8 = load ptr, ptr %3, align 8
  %9 = load ptr, ptr %4, align 8
  call void @_ZN6QFlagsIN2Qt10WindowTypeEEC2Ev(ptr noundef nonnull align 4 dereferenceable(4) %5) #11
  %10 = getelementptr inbounds %class.QFlags, ptr %5, i32 0, i32 0
  %11 = load i32, ptr %10, align 4
  call void @_ZN7QDialogC2EP7QWidget6QFlagsIN2Qt10WindowTypeEE(ptr noundef nonnull align 8 dereferenceable(48) %8, ptr noundef %9, i32 %11)
  store ptr getelementptr inbounds ({ [59 x ptr], [10 x ptr] }, ptr @_ZTV18SaveSnapshotDialog, i32 0, i32 0, i32 2), ptr %8, align 8
  %12 = getelementptr inbounds i8, ptr %8, i64 16
  store ptr getelementptr inbounds ({ [59 x ptr], [10 x ptr] }, ptr @_ZTV18SaveSnapshotDialog, i32 0, i32 1, i32 2), ptr %12, align 8
  %13 = getelementptr inbounds %class.SaveSnapshotDialog, ptr %8, i32 0, i32 1
  %14 = invoke noalias noundef nonnull ptr @_Znwm(i64 noundef 224) #12
          to label %15 unwind label %21

15:                                               ; preds = %2
  store ptr %14, ptr %13, align 8
  %16 = getelementptr inbounds %class.SaveSnapshotDialog, ptr %8, i32 0, i32 2
  invoke void @_ZN15SnapshotSettingC2Ev(ptr noundef nonnull align 8 dereferenceable(32) %16)
          to label %17 unwind label %21

17:                                               ; preds = %15
  %18 = getelementptr inbounds %class.SaveSnapshotDialog, ptr %8, i32 0, i32 1
  %19 = load ptr, ptr %18, align 8
  invoke void @_ZN21Ui_SaveSnapShotDialog7setupUiEP7QDialog(ptr noundef nonnull align 8 dereferenceable(224) %19, ptr noundef %8)
          to label %20 unwind label %25

20:                                               ; preds = %17
  ret void

21:                                               ; preds = %15, %2
  %22 = landingpad { ptr, i32 }
          cleanup
  %23 = extractvalue { ptr, i32 } %22, 0
  store ptr %23, ptr %6, align 8
  %24 = extractvalue { ptr, i32 } %22, 1
  store i32 %24, ptr %7, align 4
  br label %29

25:                                               ; preds = %17
  %26 = landingpad { ptr, i32 }
          cleanup
  %27 = extractvalue { ptr, i32 } %26, 0
  store ptr %27, ptr %6, align 8
  %28 = extractvalue { ptr, i32 } %26, 1
  store i32 %28, ptr %7, align 4
  call void @_ZN15SnapshotSettingD2Ev(ptr noundef nonnull align 8 dereferenceable(32) %16) #11
  br label %29

29:                                               ; preds = %25, %21
  call void @_ZN7QDialogD2Ev(ptr noundef nonnull align 8 dereferenceable(48) %8) #11
  br label %30

30:                                               ; preds = %29
  %31 = load ptr, ptr %6, align 8
  %32 = load i32, ptr %7, align 4
  %33 = insertvalue { ptr, i32 } poison, ptr %31, 0
  %34 = insertvalue { ptr, i32 } %33, i32 %32, 1
  resume { ptr, i32 } %34
}