; Function Attrs: mustprogress uwtable
define void @_ZN18SaveSnapshotDialogC2EP7QWidget(ptr noundef nonnull align 8 dereferenceable(88) %0, ptr noundef %1) unnamed_addr #0 align 2 personality ptr @__gxx_personality_v0 {
  tail call void @_ZN7QDialogC2EP7QWidget6QFlagsIN2Qt10WindowTypeEE(ptr noundef nonnull align 8 dereferenceable(48) %0, ptr noundef %1, i32 0)
  store ptr getelementptr inbounds ({ [59 x ptr], [10 x ptr] }, ptr @_ZTV18SaveSnapshotDialog, i64 0, i32 0, i64 2), ptr %0, align 8
  %3 = getelementptr inbounds i8, ptr %0, i64 16
  store ptr getelementptr inbounds ({ [59 x ptr], [10 x ptr] }, ptr @_ZTV18SaveSnapshotDialog, i64 0, i32 1, i64 2), ptr %3, align 8
  %4 = getelementptr inbounds i8, ptr %0, i64 48
  %5 = invoke noalias noundef nonnull dereferenceable(224) ptr @_Znwm(i64 noundef 224) #10
          to label %6 unwind label %11

6:                                                ; preds = %2
  store ptr %5, ptr %4, align 8
  %7 = getelementptr inbounds i8, ptr %0, i64 56
  invoke void @_ZN15SnapshotSettingC2Ev(ptr noundef nonnull align 8 dereferenceable(32) %7)
          to label %8 unwind label %11

8:                                                ; preds = %6
  %9 = load ptr, ptr %4, align 8
  invoke void @_ZN21Ui_SaveSnapShotDialog7setupUiEP7QDialog(ptr noundef nonnull align 8 dereferenceable(224) %9, ptr noundef nonnull %0)
          to label %10 unwind label %13

10:                                               ; preds = %8
  ret void

11:                                               ; preds = %6, %2
  %12 = landingpad { ptr, i32 }
          cleanup
  br label %15

13:                                               ; preds = %8
  %14 = landingpad { ptr, i32 }
          cleanup
  tail call void @_ZN15SnapshotSettingD2Ev(ptr noundef nonnull align 8 dereferenceable(32) %7) #11
  br label %15

15:                                               ; preds = %13, %11
  %.pn = phi { ptr, i32 } [ %14, %13 ], [ %12, %11 ]
  tail call void @_ZN7QDialogD2Ev(ptr noundef nonnull align 8 dereferenceable(48) %0) #11
  resume { ptr, i32 } %.pn
}